target datalayout = "e-m:e-p270:32:32-p271:32:32-p272:64:64-i64:64-i128:128-f80:128-n8:16:32:64-S128"
target triple = "x86_64-pc-linux-gnu"

%struct.acct_gather_energy = type { i32, i64, i64, i32, i64, i64, i64 }

; Function Attrs: nounwind uwtable
define dso_local void @acct_gather_energy_pack(ptr noundef %0, ptr noundef %1, i16 noundef zeroext %2) #0 {
  %4 = alloca ptr, align 8
  %5 = alloca ptr, align 8
  %6 = alloca i16, align 2
  store ptr %0, ptr %4, align 8
  store ptr %1, ptr %5, align 8
  store i16 %2, ptr %6, align 2
  %7 = load i16, ptr %6, align 2
  %8 = zext i16 %7 to i32
  %9 = icmp sge i32 %8, 10752
  br i1 %9, label %10, label %50

10:                                               ; preds = %3
  %11 = load ptr, ptr %4, align 8
  %12 = icmp ne ptr %11, null
  br i1 %12, label %21, label %13

13:                                               ; preds = %10
  %14 = load ptr, ptr %5, align 8
  call void @pack64(i64 noundef 0, ptr noundef %14)
  %15 = load ptr, ptr %5, align 8
  call void @pack32(i32 noundef 0, ptr noundef %15)
  %16 = load ptr, ptr %5, align 8
  call void @pack64(i64 noundef 0, ptr noundef %16)
  %17 = load ptr, ptr %5, align 8
  call void @pack32(i32 noundef 0, ptr noundef %17)
  %18 = load ptr, ptr %5, align 8
  call void @pack64(i64 noundef 0, ptr noundef %18)
  %19 = load ptr, ptr %5, align 8
  call void @pack_time(i64 noundef 0, ptr noundef %19)
  %20 = load ptr, ptr %5, align 8
  call void @pack_time(i64 noundef 0, ptr noundef %20)
  br label %90

21:                                               ; preds = %10
  %22 = load ptr, ptr %4, align 8
  %23 = getelementptr inbounds nuw %struct.acct_gather_energy, ptr %22, i32 0, i32 1
  %24 = load i64, ptr %23, align 8
  %25 = load ptr, ptr %5, align 8
  call void @pack64(i64 noundef %24, ptr noundef %25)
  %26 = load ptr, ptr %4, align 8
  %27 = getelementptr inbounds nuw %struct.acct_gather_energy, ptr %26, i32 0, i32 0
  %28 = load i32, ptr %27, align 8
  %29 = load ptr, ptr %5, align 8
  call void @pack32(i32 noundef %28, ptr noundef %29)
  %30 = load ptr, ptr %4, align 8
  %31 = getelementptr inbounds nuw %struct.acct_gather_energy, ptr %30, i32 0, i32 2
  %32 = load i64, ptr %31, align 8
  %33 = load ptr, ptr %5, align 8
  call void @pack64(i64 noundef %32, ptr noundef %33)
  %34 = load ptr, ptr %4, align 8
  %35 = getelementptr inbounds nuw %struct.acct_gather_energy, ptr %34, i32 0, i32 3
  %36 = load i32, ptr %35, align 8
  %37 = load ptr, ptr %5, align 8
  call void @pack32(i32 noundef %36, ptr noundef %37)
  %38 = load ptr, ptr %4, align 8
  %39 = getelementptr inbounds nuw %struct.acct_gather_energy, ptr %38, i32 0, i32 4
  %40 = load i64, ptr %39, align 8
  %41 = load ptr, ptr %5, align 8
  call void @pack64(i64 noundef %40, ptr noundef %41)
  %42 = load ptr, ptr %4, align 8
  %43 = getelementptr inbounds nuw %struct.acct_gather_energy, ptr %42, i32 0, i32 5
  %44 = load i64, ptr %43, align 8
  %45 = load ptr, ptr %5, align 8
  call void @pack_time(i64 noundef %44, ptr noundef %45)
  %46 = load ptr, ptr %4, align 8
  %47 = getelementptr inbounds nuw %struct.acct_gather_energy, ptr %46, i32 0, i32 6
  %48 = load i64, ptr %47, align 8
  %49 = load ptr, ptr %5, align 8
  call void @pack_time(i64 noundef %48, ptr noundef %49)
  br label %90

50:                                               ; preds = %3
  %51 = load i16, ptr %6, align 2
  %52 = zext i16 %51 to i32
  %53 = icmp sge i32 %52, 10240
  br i1 %53, label %54, label %89

54:                                               ; preds = %50
  %55 = load ptr, ptr %4, align 8
  %56 = icmp ne ptr %55, null
  br i1 %56, label %64, label %57

57:                                               ; preds = %54
  %58 = load ptr, ptr %5, align 8
  call void @pack64(i64 noundef 0, ptr noundef %58)
  %59 = load ptr, ptr %5, align 8
  call void @pack32(i32 noundef 0, ptr noundef %59)
  %60 = load ptr, ptr %5, align 8
  call void @pack64(i64 noundef 0, ptr noundef %60)
  %61 = load ptr, ptr %5, align 8
  call void @pack32(i32 noundef 0, ptr noundef %61)
  %62 = load ptr, ptr %5, align 8
  call void @pack64(i64 noundef 0, ptr noundef %62)
  %63 = load ptr, ptr %5, align 8
  call void @pack_time(i64 noundef 0, ptr noundef %63)
  br label %90

64:                                               ; preds = %54
  %65 = load ptr, ptr %4, align 8
  %66 = getelementptr inbounds nuw %struct.acct_gather_energy, ptr %65, i32 0, i32 1
  %67 = load i64, ptr %66, align 8
  %68 = load ptr, ptr %5, align 8
  call void @pack64(i64 noundef %67, ptr noundef %68)
  %69 = load ptr, ptr %4, align 8
  %70 = getelementptr inbounds nuw %struct.acct_gather_energy, ptr %69, i32 0, i32 0
  %71 = load i32, ptr %70, align 8
  %72 = load ptr, ptr %5, align 8
  call void @pack32(i32 noundef %71, ptr noundef %72)
  %73 = load ptr, ptr %4, align 8
  %74 = getelementptr inbounds nuw %struct.acct_gather_energy, ptr %73, i32 0, i32 2
  %75 = load i64, ptr %74, align 8
  %76 = load ptr, ptr %5, align 8
  call void @pack64(i64 noundef %75, ptr noundef %76)
  %77 = load ptr, ptr %4, align 8
  %78 = getelementptr inbounds nuw %struct.acct_gather_energy, ptr %77, i32 0, i32 3
  %79 = load i32, ptr %78, align 8
  %80 = load ptr, ptr %5, align 8
  call void @pack32(i32 noundef %79, ptr noundef %80)
  %81 = load ptr, ptr %4, align 8
  %82 = getelementptr inbounds nuw %struct.acct_gather_energy, ptr %81, i32 0, i32 4
  %83 = load i64, ptr %82, align 8
  %84 = load ptr, ptr %5, align 8
  call void @pack64(i64 noundef %83, ptr noundef %84)
  %85 = load ptr, ptr %4, align 8
  %86 = getelementptr inbounds nuw %struct.acct_gather_energy, ptr %85, i32 0, i32 5
  %87 = load i64, ptr %86, align 8
  %88 = load ptr, ptr %5, align 8
  call void @pack_time(i64 noundef %87, ptr noundef %88)
  br label %89

89:                                               ; preds = %64, %50
  br label %90

90:                                               ; preds = %13, %57, %89, %21
  ret void
}