; Function Attrs: nounwind uwtable
define dso_local void @acct_gather_energy_pack(ptr noundef readonly captures(address_is_null) %0, ptr noundef %1, i16 noundef zeroext %2) local_unnamed_addr #0 {
  %4 = icmp ugt i16 %2, 10751
  br i1 %4, label %5, label %21

5:                                                ; preds = %3
  %.not43 = icmp eq ptr %0, null
  br i1 %.not43, label %6, label %7

6:                                                ; preds = %5
  tail call void @pack64(i64 noundef 0, ptr noundef %1) #8
  tail call void @pack32(i32 noundef 0, ptr noundef %1) #8
  tail call void @pack64(i64 noundef 0, ptr noundef %1) #8
  tail call void @pack32(i32 noundef 0, ptr noundef %1) #8
  tail call void @pack64(i64 noundef 0, ptr noundef %1) #8
  tail call void @pack_time(i64 noundef 0, ptr noundef %1) #8
  br label %.sink.split

7:                                                ; preds = %5
  %8 = getelementptr inbounds nuw i8, ptr %0, i64 8
  %9 = load i64, ptr %8, align 8
  tail call void @pack64(i64 noundef %9, ptr noundef %1) #8
  %10 = load i32, ptr %0, align 8
  tail call void @pack32(i32 noundef %10, ptr noundef %1) #8
  %11 = getelementptr inbounds nuw i8, ptr %0, i64 16
  %12 = load i64, ptr %11, align 8
  tail call void @pack64(i64 noundef %12, ptr noundef %1) #8
  %13 = getelementptr inbounds nuw i8, ptr %0, i64 24
  %14 = load i32, ptr %13, align 8
  tail call void @pack32(i32 noundef %14, ptr noundef %1) #8
  %15 = getelementptr inbounds nuw i8, ptr %0, i64 32
  %16 = load i64, ptr %15, align 8
  tail call void @pack64(i64 noundef %16, ptr noundef %1) #8
  %17 = getelementptr inbounds nuw i8, ptr %0, i64 40
  %18 = load i64, ptr %17, align 8
  tail call void @pack_time(i64 noundef %18, ptr noundef %1) #8
  %19 = getelementptr inbounds nuw i8, ptr %0, i64 48
  %20 = load i64, ptr %19, align 8
  br label %.sink.split

21:                                               ; preds = %3
  %22 = icmp samesign ugt i16 %2, 10239
  br i1 %22, label %23, label %37

23:                                               ; preds = %21
  %.not = icmp eq ptr %0, null
  br i1 %.not, label %24, label %25

24:                                               ; preds = %23
  tail call void @pack64(i64 noundef 0, ptr noundef %1) #8
  tail call void @pack32(i32 noundef 0, ptr noundef %1) #8
  tail call void @pack64(i64 noundef 0, ptr noundef %1) #8
  tail call void @pack32(i32 noundef 0, ptr noundef %1) #8
  tail call void @pack64(i64 noundef 0, ptr noundef %1) #8
  br label %.sink.split

25:                                               ; preds = %23
  %26 = getelementptr inbounds nuw i8, ptr %0, i64 8
  %27 = load i64, ptr %26, align 8
  tail call void @pack64(i64 noundef %27, ptr noundef %1) #8
  %28 = load i32, ptr %0, align 8
  tail call void @pack32(i32 noundef %28, ptr noundef %1) #8
  %29 = getelementptr inbounds nuw i8, ptr %0, i64 16
  %30 = load i64, ptr %29, align 8
  tail call void @pack64(i64 noundef %30, ptr noundef %1) #8
  %31 = getelementptr inbounds nuw i8, ptr %0, i64 24
  %32 = load i32, ptr %31, align 8
  tail call void @pack32(i32 noundef %32, ptr noundef %1) #8
  %33 = getelementptr inbounds nuw i8, ptr %0, i64 32
  %34 = load i64, ptr %33, align 8
  tail call void @pack64(i64 noundef %34, ptr noundef %1) #8
  %35 = getelementptr inbounds nuw i8, ptr %0, i64 40
  %36 = load i64, ptr %35, align 8
  br label %.sink.split

.sink.split:                                      ; preds = %6, %7, %24, %25
  %.sink = phi i64 [ %36, %25 ], [ 0, %24 ], [ %20, %7 ], [ 0, %6 ]
  tail call void @pack_time(i64 noundef %.sink, ptr noundef %1) #8
  br label %37

37:                                               ; preds = %.sink.split, %21
  ret void
}